; Function Attrs: mustprogress noreturn nounwind uwtable
define dso_local void @_ZN11flatbuffers16LogCompilerErrorERKNSt7__cxx1112basic_stringIcSt11char_traitsIcESaIcEEE(ptr noundef nonnull align 8 dereferenceable(32) %err) local_unnamed_addr #1 personality ptr @__gxx_personality_v0 {
entry:
  %0 = load ptr, ptr @_ZL14g_program_name, align 8
  %call.i = tail call i32 (ptr, ...) @printf(ptr noundef nonnull dereferenceable(1) @.str.50, ptr noundef %0)
  %1 = load ptr, ptr @stderr, align 8
  %call15.i = tail call noundef ptr @_ZNKSt7__cxx1112basic_stringIcSt11char_traitsIcESaIcEE5c_strEv(ptr noundef nonnull align 8 dereferenceable(32) %err) #14
  %call16.i = tail call i32 (ptr, ptr, ...) @fprintf(ptr noundef %1, ptr noundef nonnull @.str.53, ptr noundef %call15.i) #15
  tail call void @exit(i32 noundef 1) #16
  unreachable
}